target datalayout = "e-m:e-p270:32:32-p271:32:32-p272:64:64-i64:64-i128:128-f80:128-n8:16:32:64-S128"
target triple = "x86_64-pc-linux-gnu"

; Function Attrs: null_pointer_is_valid sspstrong uwtable
define internal zeroext i1 @dissect_smb2_heur(ptr noundef %0, ptr noundef %1, ptr noundef %2, ptr noundef %3) #0 {
  %5 = alloca i1, align 1
  %6 = alloca ptr, align 8
  %7 = alloca ptr, align 8
  %8 = alloca ptr, align 8
  %9 = alloca ptr, align 8
  %10 = alloca i8, align 1
  %11 = alloca i32, align 4
  store ptr %0, ptr %6, align 8
  store ptr %1, ptr %7, align 8
  store ptr %2, ptr %8, align 8
  store ptr %3, ptr %9, align 8
  call void @llvm.lifetime.start.p0(i64 1, ptr %10) #13
  %12 = load ptr, ptr %6, align 8
  %13 = call i32 @tvb_captured_length(ptr noundef %12)
  %14 = icmp ult i32 %13, 4
  br i1 %14, label %15, label %16

15:                                               ; preds = %4
  store i1 false, ptr %5, align 1
  store i32 1, ptr %11, align 4
  br label %51

16:                                               ; preds = %4
  %17 = load ptr, ptr %6, align 8
  %18 = call zeroext i8 @tvb_get_uint8(ptr noundef %17, i32 noundef 0)
  store i8 %18, ptr %10, align 1
  %19 = load i8, ptr %10, align 1
  %20 = zext i8 %19 to i32
  %21 = icmp ne i32 %20, 252
  br i1 %21, label %22, label %30

22:                                               ; preds = %16
  %23 = load i8, ptr %10, align 1
  %24 = zext i8 %23 to i32
  %25 = icmp ne i32 %24, 253
  br i1 %25, label %26, label %30

26:                                               ; preds = %22
  %27 = load i8, ptr %10, align 1
  %28 = zext i8 %27 to i32
  %29 = icmp ne i32 %28, 254
  br i1 %29, label %45, label %30

30:                                               ; preds = %26, %22, %16
  %31 = load ptr, ptr %6, align 8
  %32 = call zeroext i8 @tvb_get_uint8(ptr noundef %31, i32 noundef 1)
  %33 = zext i8 %32 to i32
  %34 = icmp ne i32 %33, 83
  br i1 %34, label %45, label %35

35:                                               ; preds = %30
  %36 = load ptr, ptr %6, align 8
  %37 = call zeroext i8 @tvb_get_uint8(ptr noundef %36, i32 noundef 2)
  %38 = zext i8 %37 to i32
  %39 = icmp ne i32 %38, 77
  br i1 %39, label %45, label %40

40:                                               ; preds = %35
  %41 = load ptr, ptr %6, align 8
  %42 = call zeroext i8 @tvb_get_uint8(ptr noundef %41, i32 noundef 3)
  %43 = zext i8 %42 to i32
  %44 = icmp ne i32 %43, 66
  br i1 %44, label %45, label %46

45:                                               ; preds = %40, %35, %30, %26
  store i1 false, ptr %5, align 1
  store i32 1, ptr %11, align 4
  br label %51

46:                                               ; preds = %40
  %47 = load ptr, ptr %6, align 8
  %48 = load ptr, ptr %7, align 8
  %49 = load ptr, ptr %8, align 8
  %50 = call i32 @dissect_smb2(ptr noundef %47, ptr noundef %48, ptr noundef %49, i1 noundef zeroext true)
  store i1 true, ptr %5, align 1
  store i32 1, ptr %11, align 4
  br label %51

51:                                               ; preds = %46, %45, %15
  call void @llvm.lifetime.end.p0(i64 1, ptr %10) #13
  %52 = load i1, ptr %5, align 1
  ret i1 %52
}